target datalayout = "e-m:e-p270:32:32-p271:32:32-p272:64:64-i64:64-f80:128-n8:16:32:64-S128"
target triple = "x86_64-pc-linux-gnu"

@.str = private unnamed_addr constant [3 x i8] c"%c\00", align 1
@.str.1 = private unnamed_addr constant [4 x i8] c"%c\0A\00", align 1

; Function Attrs: noinline nounwind uwtable
define dso_local i32 @main() #0 {
  %1 = alloca i32, align 4
  %2 = alloca [101 x i8], align 16
  %3 = alloca [101 x i8], align 16
  %4 = alloca i32, align 4
  %5 = alloca i32, align 4
  %6 = alloca i32, align 4
  %7 = alloca i32, align 4
  %8 = alloca i32, align 4
  %9 = alloca i32, align 4
  %10 = alloca i32, align 4
  %11 = alloca i32, align 4
  store i32 0, i32* %1, align 4
  br label %12

12:                                               ; preds = %156, %0
  %13 = getelementptr inbounds [101 x i8], [101 x i8]* %2, i64 0, i64 0
  %14 = call i32 (i8*, ...) bitcast (i32 (...)* @gets to i32 (i8*, ...)*)(i8* %13)
  %15 = icmp ne i32 %14, 0
  br i1 %15, label %16, label %164

16:                                               ; preds = %12
  %17 = getelementptr inbounds [101 x i8], [101 x i8]* %2, i64 0, i64 0
  %18 = call i64 @strlen(i8* %17) #4
  %19 = trunc i64 %18 to i32
  store i32 %19, i32* %4, align 4
  %20 = getelementptr inbounds [101 x i8], [101 x i8]* %3, i64 0, i64 0
  %21 = getelementptr inbounds [101 x i8], [101 x i8]* %2, i64 0, i64 0
  %22 = call i8* @strcpy(i8* %20, i8* %21) #5
  store i32 0, i32* %8, align 4
  br label %23

23:                                               ; preds = %67, %16
  %24 = load i32, i32* %8, align 4
  %25 = load i32, i32* %4, align 4
  %26 = icmp slt i32 %24, %25
  br i1 %26, label %27, label %70

27:                                               ; preds = %23
  %28 = load i32, i32* %8, align 4
  %29 = sext i32 %28 to i64
  %30 = getelementptr inbounds [101 x i8], [101 x i8]* %2, i64 0, i64 %29
  %31 = load i8, i8* %30, align 1
  %32 = sext i8 %31 to i32
  %33 = icmp eq i32 %32, 41
  br i1 %33, label %34, label %66

34:                                               ; preds = %27
  store i32 0, i32* %7, align 4
  %35 = load i32, i32* %8, align 4
  %36 = sub nsw i32 %35, 1
  store i32 %36, i32* %5, align 4
  br label %37

37:                                               ; preds = %55, %34
  %38 = load i32, i32* %5, align 4
  %39 = icmp sge i32 %38, 0
  br i1 %39, label %40, label %58

40:                                               ; preds = %37
  %41 = load i32, i32* %5, align 4
  %42 = sext i32 %41 to i64
  %43 = getelementptr inbounds [101 x i8], [101 x i8]* %2, i64 0, i64 %42
  %44 = load i8, i8* %43, align 1
  %45 = sext i8 %44 to i32
  %46 = icmp eq i32 %45, 40
  br i1 %46, label %47, label %54

47:                                               ; preds = %40
  %48 = load i32, i32* %5, align 4
  %49 = sext i32 %48 to i64
  %50 = getelementptr inbounds [101 x i8], [101 x i8]* %2, i64 0, i64 %49
  store i8 32, i8* %50, align 1
  %51 = load i32, i32* %8, align 4
  %52 = sext i32 %51 to i64
  %53 = getelementptr inbounds [101 x i8], [101 x i8]* %2, i64 0, i64 %52
  store i8 32, i8* %53, align 1
  store i32 1, i32* %7, align 4
  br label %58

54:                                               ; preds = %40
  br label %55

55:                                               ; preds = %54
  %56 = load i32, i32* %5, align 4
  %57 = add nsw i32 %56, -1
  store i32 %57, i32* %5, align 4
  br label %37

58:                                               ; preds = %47, %37
  %59 = load i32, i32* %7, align 4
  %60 = icmp ne i32 %59, 1
  br i1 %60, label %61, label %65

61:                                               ; preds = %58
  %62 = load i32, i32* %8, align 4
  %63 = sext i32 %62 to i64
  %64 = getelementptr inbounds [101 x i8], [101 x i8]* %2, i64 0, i64 %63
  store i8 63, i8* %64, align 1
  br label %65

65:                                               ; preds = %61, %58
  br label %66

66:                                               ; preds = %65, %27
  br label %67

67:                                               ; preds = %66
  %68 = load i32, i32* %8, align 4
  %69 = add nsw i32 %68, 1
  store i32 %69, i32* %8, align 4
  br label %23

70:                                               ; preds = %23
  store i32 0, i32* %9, align 4
  br label %71

71:                                               ; preds = %87, %70
  %72 = load i32, i32* %9, align 4
  %73 = load i32, i32* %4, align 4
  %74 = icmp slt i32 %72, %73
  br i1 %74, label %75, label %90

75:                                               ; preds = %71
  %76 = load i32, i32* %9, align 4
  %77 = sext i32 %76 to i64
  %78 = getelementptr inbounds [101 x i8], [101 x i8]* %2, i64 0, i64 %77
  %79 = load i8, i8* %78, align 1
  %80 = sext i8 %79 to i32
  %81 = icmp eq i32 %80, 40
  br i1 %81, label %82, label %86

82:                                               ; preds = %75
  %83 = load i32, i32* %9, align 4
  %84 = sext i32 %83 to i64
  %85 = getelementptr inbounds [101 x i8], [101 x i8]* %2, i64 0, i64 %84
  store i8 36, i8* %85, align 1
  br label %86

86:                                               ; preds = %82, %75
  br label %87

87:                                               ; preds = %86
  %88 = load i32, i32* %9, align 4
  %89 = add nsw i32 %88, 1
  store i32 %89, i32* %9, align 4
  br label %71

90:                                               ; preds = %71
  store i32 0, i32* %10, align 4
  br label %91

91:                                               ; preds = %114, %90
  %92 = load i32, i32* %10, align 4
  %93 = load i32, i32* %4, align 4
  %94 = icmp slt i32 %92, %93
  br i1 %94, label %95, label %117

95:                                               ; preds = %91
  %96 = load i32, i32* %10, align 4
  %97 = sext i32 %96 to i64
  %98 = getelementptr inbounds [101 x i8], [101 x i8]* %2, i64 0, i64 %97
  %99 = load i8, i8* %98, align 1
  %100 = sext i8 %99 to i32
  %101 = icmp ne i32 %100, 36
  br i1 %101, label %102, label %113

102:                                              ; preds = %95
  %103 = load i32, i32* %10, align 4
  %104 = sext i32 %103 to i64
  %105 = getelementptr inbounds [101 x i8], [101 x i8]* %2, i64 0, i64 %104
  %106 = load i8, i8* %105, align 1
  %107 = sext i8 %106 to i32
  %108 = icmp ne i32 %107, 63
  br i1 %108, label %109, label %113

109:                                              ; preds = %102
  %110 = load i32, i32* %10, align 4
  %111 = sext i32 %110 to i64
  %112 = getelementptr inbounds [101 x i8], [101 x i8]* %2, i64 0, i64 %111
  store i8 32, i8* %112, align 1
  br label %113

113:                                              ; preds = %109, %102, %95
  br label %114

114:                                              ; preds = %113
  %115 = load i32, i32* %10, align 4
  %116 = add nsw i32 %115, 1
  store i32 %116, i32* %10, align 4
  br label %91

117:                                              ; preds = %91
  store i32 0, i32* %11, align 4
  br label %118

118:                                              ; preds = %130, %117
  %119 = load i32, i32* %11, align 4
  %120 = load i32, i32* %4, align 4
  %121 = sub nsw i32 %120, 1
  %122 = icmp slt i32 %119, %121
  br i1 %122, label %123, label %133

123:                                              ; preds = %118
  %124 = load i32, i32* %11, align 4
  %125 = sext i32 %124 to i64
  %126 = getelementptr inbounds [101 x i8], [101 x i8]* %3, i64 0, i64 %125
  %127 = load i8, i8* %126, align 1
  %128 = sext i8 %127 to i32
  %129 = call i32 (i8*, ...) @printf(i8* getelementptr inbounds ([3 x i8], [3 x i8]* @.str, i64 0, i64 0), i32 %128)
  br label %130

130:                                              ; preds = %123
  %131 = load i32, i32* %11, align 4
  %132 = add nsw i32 %131, 1
  store i32 %132, i32* %11, align 4
  br label %118

133:                                              ; preds = %118
  %134 = load i32, i32* %4, align 4
  %135 = sub nsw i32 %134, 1
  %136 = sext i32 %135 to i64
  %137 = getelementptr inbounds [101 x i8], [101 x i8]* %3, i64 0, i64 %136
  %138 = load i8, i8* %137, align 1
  %139 = sext i8 %138 to i32
  %140 = call i32 (i8*, ...) @printf(i8* getelementptr inbounds ([4 x i8], [4 x i8]* @.str.1, i64 0, i64 0), i32 %139)
  store i32 0, i32* %6, align 4
  br label %141

141:                                              ; preds = %153, %133
  %142 = load i32, i32* %6, align 4
  %143 = load i32, i32* %4, align 4
  %144 = sub nsw i32 %143, 1
  %145 = icmp slt i32 %142, %144
  br i1 %145, label %146, label %156

146:                                              ; preds = %141
  %147 = load i32, i32* %6, align 4
  %148 = sext i32 %147 to i64
  %149 = getelementptr inbounds [101 x i8], [101 x i8]* %2, i64 0, i64 %148
  %150 = load i8, i8* %149, align 1
  %151 = sext i8 %150 to i32
  %152 = call i32 (i8*, ...) @printf(i8* getelementptr inbounds ([3 x i8], [3 x i8]* @.str, i64 0, i64 0), i32 %151)
  br label %153

153:                                              ; preds = %146
  %154 = load i32, i32* %6, align 4
  %155 = add nsw i32 %154, 1
  store i32 %155, i32* %6, align 4
  br label %141

156:                                              ; preds = %141
  %157 = load i32, i32* %4, align 4
  %158 = sub nsw i32 %157, 1
  %159 = sext i32 %158 to i64
  %160 = getelementptr inbounds [101 x i8], [101 x i8]* %2, i64 0, i64 %159
  %161 = load i8, i8* %160, align 1
  %162 = sext i8 %161 to i32
  %163 = call i32 (i8*, ...) @printf(i8* getelementptr inbounds ([4 x i8], [4 x i8]* @.str.1, i64 0, i64 0), i32 %162)
  br label %12

164:                                              ; preds = %12
  ret i32 0
}